(dp0
Vskeleton_2
p1
(dp2
VJOINT_RIGHT_ELBOW_ORIENTATION
p3
(dp4
Vy
p5
F0.570019066
sVx
p6
F0.165835902
sVz
p7
F-0.512408018
sVw
p8
F0.165835902
ssVJOINT_LEFT_HIP_ORIENTATION
p9
(dp10
g5
F-0.180033818
sg6
F0.130657271
sg7
F0.126563996
sg8
F0.130657271
ssVJOINT_RIGHT_ELBOW_POSITION
p11
(dp12
g5
F166.409454
sg6
F1768.31079
sg7
F4365.7583
ssVJOINT_RIGHT_HAND_POSITION
p13
(dp14
g5
F57.134697
sg6
F1725.52197
sg7
F4151.20215
ssVJOINT_RIGHT_SHOULDER_ORIENTATION
p15
(dp16
g5
F0.0352638587
sg6
F-0.203842521
sg7
F-0.498509526
sg8
F-0.203842521
ssVJOINT_RIGHT_HIP_POSITION
p17
(dp18
g5
F48.5942535
sg6
F1660.65173
sg7
F4410.31299
ssVJOINT_LEFT_ELBOW_ORIENTATION
p19
(dp20
g5
F-0.425832361
sg6
F0.509774268
sg7
F0.747330904
sg8
F0.509774268
ssVJOINT_LEFT_HIP_POSITION
p21
(dp22
g5
F34.5729218
sg6
F1575.55652
sg7
F4446.86377
ssVJOINT_RIGHT_HIP_ORIENTATION
p23
(dp24
g5
F-0.36672613
sg6
F0.0254302435
sg7
F0.172316298
sg8
F0.0254302435
ssVJOINT_RIGHT_KNEE_ORIENTATION
p25
(dp26
g5
F-0.382596344
sg6
F0.011144964
sg7
F-0.00410067756
sg8
F0.011144964
ssVJOINT_LEFT_KNEE_POSITION
p27
(dp28
g5
F-442.470886
sg6
F1724.59387
sg7
F4341.09717
ssVJOINT_LEFT_HAND_POSITION
p29
(dp30
g5
F268.280182
sg6
F1676.19507
sg7
F4342.43945
ssVJOINT_LEFT_SHOULDER_ORIENTATION
p31
(dp32
g5
F-0.240039259
sg6
F-0.363975406
sg7
F0.828187883
sg8
F-0.363975406
ssVJOINT_LEFT_FOOT_POSITION
p33
(dp34
g5
F-876.676758
sg6
F1759.71436
sg7
F4483.04443
ssVJOINT_LEFT_FOOT_ORIENTATION
p35
(dp36
g5
F0.0
sg6
F0.0
sg7
F0.0
sg8
F0.0
ssVJOINT_RIGHT_FOOT_POSITION
p37
(dp38
g5
F-884.992737
sg6
F1824.82666
sg7
F4438.31104
ssVJOINT_HEAD_ORIENTATION
p39
(dp40
g5
F0.195476964
sg6
F0.119288437
sg7
F-0.0657387525
sg8
F0.119288437
ssVJOINT_RIGHT_HAND_ORIENTATION
p41
(dp42
g5
F0.0
sg6
F0.0
sg7
F0.0
sg8
F0.0
ssVJOINT_RIGHT_KNEE_POSITION
p43
(dp44
g5
F-412.403076
sg6
F1824.37695
sg7
F4449.52881
ssVJOINT_HEAD_POSITION
p45
(dp46
g5
F509.569824
sg6
F1570.25415
sg7
F4407.229
ssVJOINT_LEFT_SHOULDER_POSITION
p47
(dp48
g5
F341.221436
sg6
F1439.78528
sg7
F4419.11377
ssVJOINT_LEFT_KNEE_ORIENTATION
p49
(dp50
g5
F-0.208270222
sg6
F-0.145241201
sg7
F0.0710924491
sg8
F-0.145241201
ssVJOINT_TORSO_POSITION
p51
(dp52
g5
F199.893616
sg6
F1580.47705
sg7
F4401.7168
ssVJOINT_NECK_POSITION
p53
(dp54
g5
F358.203644
sg6
F1542.84998
sg7
F4374.84521
ssVJOINT_TORSO_ORIENTATION
p55
(dp56
g5
F0.1905431
sg6
F-0.102938235
sg7
F0.0972397551
sg8
F-0.102938235
ssVJOINT_RIGHT_FOOT_ORIENTATION
p57
(dp58
g5
F0.0
sg6
F0.0
sg7
F0.0
sg8
F0.0
ssVJOINT_NECK_ORIENTATION
p59
(dp60
g5
F0.195476964
sg6
F0.119288437
sg7
F-0.0657387525
sg8
F0.119288437
ssVJOINT_LEFT_ELBOW_POSITION
p61
(dp62
g5
F155.84404
sg6
F1558.8894
sg7
F4525.20605
ssVJOINT_LEFT_HAND_ORIENTATION
p63
(dp64
g5
F0.0
sg6
F0.0
sg7
F0.0
sg8
F0.0
ssVJOINT_RIGHT_SHOULDER_POSITION
p65
(dp66
g5
F375.185852
sg6
F1645.91467
sg7
F4330.57666
sssVskeleton_0
p67
(dp68
g3
(dp69
g5
F0.570019066
sg6
F0.165835902
sg7
F-0.512408018
sg8
F0.165835902
ssg9
(dp70
g5
F-0.180033818
sg6
F0.130657271
sg7
F0.126563996
sg8
F0.130657271
ssg11
(dp71
g5
F166.409454
sg6
F1768.31079
sg7
F4365.7583
ssg13
(dp72
g5
F57.134697
sg6
F1725.52197
sg7
F4151.20215
ssg15
(dp73
g5
F0.0352638587
sg6
F-0.203842521
sg7
F-0.498509526
sg8
F-0.203842521
ssg17
(dp74
g5
F48.5942535
sg6
F1660.65173
sg7
F4410.31299
ssg19
(dp75
g5
F-0.425832361
sg6
F0.509774268
sg7
F0.747330904
sg8
F0.509774268
ssg21
(dp76
g5
F34.5729218
sg6
F1575.55652
sg7
F4446.86377
ssg23
(dp77
g5
F-0.36672613
sg6
F0.0254302435
sg7
F0.172316298
sg8
F0.0254302435
ssg25
(dp78
g5
F-0.382596344
sg6
F0.011144964
sg7
F-0.00410067756
sg8
F0.011144964
ssg27
(dp79
g5
F-442.470886
sg6
F1724.59387
sg7
F4341.09717
ssg29
(dp80
g5
F268.280182
sg6
F1676.19507
sg7
F4342.43945
ssg31
(dp81
g5
F-0.240039259
sg6
F-0.363975406
sg7
F0.828187883
sg8
F-0.363975406
ssg33
(dp82
g5
F-876.676758
sg6
F1759.71436
sg7
F4483.04443
ssg35
(dp83
g5
F0.0
sg6
F0.0
sg7
F0.0
sg8
F0.0
ssg37
(dp84
g5
F-884.992737
sg6
F1824.82666
sg7
F4438.31104
ssg39
(dp85
g5
F0.195476964
sg6
F0.119288437
sg7
F-0.0657387525
sg8
F0.119288437
ssg41
(dp86
g5
F0.0
sg6
F0.0
sg7
F0.0
sg8
F0.0
ssg43
(dp87
g5
F-412.403076
sg6
F1824.37695
sg7
F4449.52881
ssg45
(dp88
g5
F509.569824
sg6
F1570.25415
sg7
F4407.229
ssg47
(dp89
g5
F341.221436
sg6
F1439.78528
sg7
F4419.11377
ssg49
(dp90
g5
F-0.208270222
sg6
F-0.145241201
sg7
F0.0710924491
sg8
F-0.145241201
ssg51
(dp91
g5
F199.893616
sg6
F1580.47705
sg7
F4401.7168
ssg53
(dp92
g5
F358.203644
sg6
F1542.84998
sg7
F4374.84521
ssg55
(dp93
g5
F0.1905431
sg6
F-0.102938235
sg7
F0.0972397551
sg8
F-0.102938235
ssg57
(dp94
g5
F0.0
sg6
F0.0
sg7
F0.0
sg8
F0.0
ssg59
(dp95
g5
F0.195476964
sg6
F0.119288437
sg7
F-0.0657387525
sg8
F0.119288437
ssg61
(dp96
g5
F155.84404
sg6
F1558.8894
sg7
F4525.20605
ssg63
(dp97
g5
F0.0
sg6
F0.0
sg7
F0.0
sg8
F0.0
ssg65
(dp98
g5
F375.185852
sg6
F1645.91467
sg7
F4330.57666
sssVskeleton_1
p99
(dp100
g3
(dp101
g5
F0.570019066
sg6
F0.165835902
sg7
F-0.512408018
sg8
F0.165835902
ssg9
(dp102
g5
F-0.180033818
sg6
F0.130657271
sg7
F0.126563996
sg8
F0.130657271
ssg11
(dp103
g5
F166.409454
sg6
F1768.31079
sg7
F4365.7583
ssg13
(dp104
g5
F57.134697
sg6
F1725.52197
sg7
F4151.20215
ssg15
(dp105
g5
F0.0352638587
sg6
F-0.203842521
sg7
F-0.498509526
sg8
F-0.203842521
ssg17
(dp106
g5
F48.5942535
sg6
F1660.65173
sg7
F4410.31299
ssg19
(dp107
g5
F-0.425832361
sg6
F0.509774268
sg7
F0.747330904
sg8
F0.509774268
ssg21
(dp108
g5
F34.5729218
sg6
F1575.55652
sg7
F4446.86377
ssg23
(dp109
g5
F-0.36672613
sg6
F0.0254302435
sg7
F0.172316298
sg8
F0.0254302435
ssg25
(dp110
g5
F-0.382596344
sg6
F0.011144964
sg7
F-0.00410067756
sg8
F0.011144964
ssg27
(dp111
g5
F-442.470886
sg6
F1724.59387
sg7
F4341.09717
ssg29
(dp112
g5
F268.280182
sg6
F1676.19507
sg7
F4342.43945
ssg31
(dp113
g5
F-0.240039259
sg6
F-0.363975406
sg7
F0.828187883
sg8
F-0.363975406
ssg33
(dp114
g5
F-876.676758
sg6
F1759.71436
sg7
F4483.04443
ssg35
(dp115
g5
F0.0
sg6
F0.0
sg7
F0.0
sg8
F0.0
ssg37
(dp116
g5
F-884.992737
sg6
F1824.82666
sg7
F4438.31104
ssg39
(dp117
g5
F0.195476964
sg6
F0.119288437
sg7
F-0.0657387525
sg8
F0.119288437
ssg41
(dp118
g5
F0.0
sg6
F0.0
sg7
F0.0
sg8
F0.0
ssg43
(dp119
g5
F-412.403076
sg6
F1824.37695
sg7
F4449.52881
ssg45
(dp120
g5
F509.569824
sg6
F1570.25415
sg7
F4407.229
ssg47
(dp121
g5
F341.221436
sg6
F1439.78528
sg7
F4419.11377
ssg49
(dp122
g5
F-0.208270222
sg6
F-0.145241201
sg7
F0.0710924491
sg8
F-0.145241201
ssg51
(dp123
g5
F199.893616
sg6
F1580.47705
sg7
F4401.7168
ssg53
(dp124
g5
F358.203644
sg6
F1542.84998
sg7
F4374.84521
ssg55
(dp125
g5
F0.1905431
sg6
F-0.102938235
sg7
F0.0972397551
sg8
F-0.102938235
ssg57
(dp126
g5
F0.0
sg6
F0.0
sg7
F0.0
sg8
F0.0
ssg59
(dp127
g5
F0.195476964
sg6
F0.119288437
sg7
F-0.0657387525
sg8
F0.119288437
ssg61
(dp128
g5
F155.84404
sg6
F1558.8894
sg7
F4525.20605
ssg63
(dp129
g5
F0.0
sg6
F0.0
sg7
F0.0
sg8
F0.0
ssg65
(dp130
g5
F375.185852
sg6
F1645.91467
sg7
F4330.57666
sss.